Certificate:
    Data:
        Version: 3 (0x2)
        Serial Number: 3 (0x3)
    Signature Algorithm: sha1WithRSAEncryption
        Issuer: C=FR, ST=France, L=Palaiseau, O=Loboto Inc, CN=Loboto Inc Root CA/emailAddress=relations_clientele@loboto.com
        Validity
            Not Before: Jun 14 13:54:29 2013 GMT
            Not After : Jun 14 13:54:29 2014 GMT
        Subject: C=FR, ST=France, O=Loboto Inc, OU=Relay 02, CN=Loboto/emailAddress=relay02@loboto.com
        Subject Public Key Info:
            Public Key Algorithm: rsaEncryption
                Public-Key: (1024 bit)
                Modulus:
                    00:cc:c0:2a:29:63:9f:8d:67:36:fb:70:60:43:72:
                    a7:55:f9:d9:bd:86:26:d2:b4:ae:92:0e:6b:5f:17:
                    f6:04:f1:9a:42:3b:bb:cf:be:f2:d0:61:79:ba:f0:
                    b5:91:d1:75:64:38:6b:9f:c3:fc:a3:1a:03:56:b7:
                    97:7b:ce:8c:44:73:58:d5:78:b4:27:8d:94:3f:47:
                    0f:3e:96:83:a5:2a:02:db:0e:92:98:86:7f:b5:4b:
                    73:25:05:5e:6b:47:9d:d7:c1:15:97:5e:8b:8c:10:
                    e6:2a:a6:9e:02:3d:88:69:4c:18:ad:a4:97:21:fd:
                    17:a5:5e:a4:81:ff:2d:81:29
                Exponent: 65537 (0x10001)
        X509v3 extensions:
            X509v3 Basic Constraints: 
                CA:FALSE
            X509v3 Subject Key Identifier: 
                AD:5A:3A:1E:B4:53:42:E6:36:47:BA:15:4B:8F:0B:82:94:37:AE:53
            X509v3 Authority Key Identifier: 
                keyid:33:D5:6B:A7:0F:14:84:26:12:59:AD:48:D0:8B:BF:DA:F2:4E:B5:6F
                DirName:/C=FR/ST=France/L=Palaiseau/O=Loboto Inc/CN=Loboto Inc Root CA/emailAddress=relations_clientele@loboto.com
                serial:8B:F4:BB:E6:FA:A1:A2:4E

            Netscape CA Revocation Url: 
                https://loboto/ca-crl.pem
    Signature Algorithm: sha1WithRSAEncryption
         9b:6d:d8:15:f0:ab:77:9d:fc:42:fb:45:a9:13:14:1c:0b:2d:
         42:04:37:08:6a:43:4a:76:91:5b:52:c8:2b:76:93:71:1b:44:
         8d:6c:6c:76:0d:70:6d:76:cc:65:c6:38:db:e1:13:f8:94:11:
         96:c6:4b:25:f1:f3:9c:7d:ee:bf:0c:e0:31:40:4c:ee:0f:c4:
         bc:00:3a:7a:fb:68:b4:7b:ce:b6:53:6d:aa:f4:b2:30:7a:d9:
         16:63:98:81:4a:d1:de:39:91:43:de:0a:73:3b:36:42:13:f1:
         12:bd:5a:ee:ed:42:d9:57:96:05:66:fa:a9:ec:41:50:5b:ba:
         4a:94:6c:fe:06:22:5c:64:34:ef:56:03:0d:29:3d:9c:2b:4a:
         53:aa:4c:c7:60:7a:86:42:98:03:8b:da:2e:96:89:bb:41:02:
         a9:e0:9c:cd:ea:c4:8e:b0:b0:44:a7:00:ad:0d:31:df:70:2a:
         e9:70:f9:5b:3f:f2:e6:2a:0c:c3:4e:18:c2:c2:a1:8a:a9:8e:
         a8:81:80:b2:8e:01:24:d7:38:55:6e:88:86:ef:3e:02:48:01:
         c9:cf:56:61:cd:9d:9c:b1:23:b3:25:ce:34:95:2f:ed:86:07:
         be:93:00:85:da:a4:f9:4b:44:81:0e:c1:16:4c:ae:9f:dd:77:
         5d:10:f8:d5
-----BEGIN CERTIFICATE-----
MIIEKjCCAxKgAwIBAgIBAzANBgkqhkiG9w0BAQUFADCBkzELMAkGA1UEBhMCRlIx
DzANBgNVBAgMBkZyYW5jZTESMBAGA1UEBwwJUGFsYWlzZWF1MRMwEQYDVQQKDApM
b2JvdG8gSW5jMRswGQYDVQQDDBJMb2JvdG8gSW5jIFJvb3QgQ0ExLTArBgkqhkiG
9w0BCQEWHnJlbGF0aW9uc19jbGllbnRlbGVAbG9ib3RvLmNvbTAeFw0xMzA2MTQx
MzU0MjlaFw0xNDA2MTQxMzU0MjlaMHoxCzAJBgNVBAYTAkZSMQ8wDQYDVQQIDAZG
cmFuY2UxEzARBgNVBAoMCkxvYm90byBJbmMxETAPBgNVBAsMCFJlbGF5IDAyMQ8w
DQYDVQQDDAZMb2JvdG8xITAfBgkqhkiG9w0BCQEWEnJlbGF5MDJAbG9ib3RvLmNv
bTCBnzANBgkqhkiG9w0BAQEFAAOBjQAwgYkCgYEAzMAqKWOfjWc2+3BgQ3KnVfnZ
vYYm0rSukg5rXxf2BPGaQju7z77y0GF5uvC1kdF1ZDhrn8P8oxoDVreXe86MRHNY
1Xi0J42UP0cPPpaDpSoC2w6SmIZ/tUtzJQVea0ed18EVl16LjBDmKqaeAj2IaUwY
raSXIf0XpV6kgf8tgSkCAwEAAaOCASMwggEfMAkGA1UdEwQCMAAwHQYDVR0OBBYE
FK1aOh60U0LmNke6FUuPC4KUN65TMIHIBgNVHSMEgcAwgb2AFDPVa6cPFIQmElmt
SNCLv9ryTrVvoYGZpIGWMIGTMQswCQYDVQQGEwJGUjEPMA0GA1UECAwGRnJhbmNl
MRIwEAYDVQQHDAlQYWxhaXNlYXUxEzARBgNVBAoMCkxvYm90byBJbmMxGzAZBgNV
BAMMEkxvYm90byBJbmMgUm9vdCBDQTEtMCsGCSqGSIb3DQEJARYecmVsYXRpb25z
X2NsaWVudGVsZUBsb2JvdG8uY29tggkAi/S75vqhok4wKAYJYIZIAYb4QgEEBBsW
GWh0dHBzOi8vbG9ib3RvL2NhLWNybC5wZW0wDQYJKoZIhvcNAQEFBQADggEBAJtt
2BXwq3ed/EL7RakTFBwLLUIENwhqQ0p2kVtSyCt2k3EbRI1sbHYNcG12zGXGONvh
E/iUEZbGSyXx85x97r8M4DFATO4PxLwAOnr7aLR7zrZTbar0sjB62RZjmIFK0d45
kUPeCnM7NkIT8RK9Wu7tQtlXlgVm+qnsQVBbukqUbP4GIlxkNO9WAw0pPZwrSlOq
TMdgeoZCmAOL2i6WibtBAqngnM3qxI6wsESnAK0NMd9wKulw+Vs/8uYqDMNOGMLC
oYqpjqiBgLKOASTXOFVuiIbvPgJIAcnPVmHNnZyxI7MlzjSVL+2GB76TAIXapPlL
RIEOwRZMrp/dd10Q+NU=
-----END CERTIFICATE-----
