Certificate:
    Data:
        Version: 3 (0x2)
        Serial Number: 4 (0x4)
    Signature Algorithm: sha1WithRSAEncryption
        Issuer: C=FR, ST=France, L=Palaiseau, O=Loboto Inc, CN=Loboto Inc Root CA/emailAddress=relations_clientele@loboto.com
        Validity
            Not Before: Jun 23 11:55:20 2013 GMT
            Not After : Jun 23 11:55:20 2014 GMT
        Subject: C=FR, ST=France, O=Loboto Inc, OU=Directory, CN=Loboto/emailAddress=directory@loboto.com
        Subject Public Key Info:
            Public Key Algorithm: rsaEncryption
                Public-Key: (2048 bit)
                Modulus:
                    00:be:c4:72:7d:6f:8b:79:72:f5:56:6c:f9:e3:72:
                    4d:a8:92:44:4a:46:c3:06:83:a0:57:e9:3d:ca:40:
                    d9:f9:e9:2c:14:0e:72:6e:5f:69:cb:20:e5:a3:fe:
                    45:af:9d:6d:0f:82:e2:16:ea:f8:bc:6e:0d:94:a9:
                    56:a9:e5:67:0f:c9:27:7c:54:92:82:d0:c0:8d:7f:
                    d2:7e:17:99:c5:93:da:84:15:d9:ad:77:08:f9:68:
                    16:b1:2f:d4:70:d2:4e:4e:ff:7a:fb:2b:87:98:24:
                    21:c6:f0:83:0e:42:b5:2a:f2:08:95:8a:46:0f:5f:
                    2d:5f:09:5c:74:e6:9e:06:e6:52:fb:2c:ba:4d:3e:
                    32:52:58:87:1a:87:63:5c:c1:a9:50:a5:82:27:43:
                    c8:2c:d4:88:9c:b8:23:34:4a:36:7d:e0:98:b4:0a:
                    d7:c0:de:d7:9b:0f:26:0f:63:0d:e2:09:1a:81:16:
                    f4:02:11:73:24:13:bf:b4:68:60:eb:56:3b:2a:4a:
                    1c:5c:a3:fa:fb:d1:1f:2a:5b:2f:16:2d:90:3f:a0:
                    b1:ed:7e:ab:e1:0f:08:01:a8:ab:ee:9d:34:5b:c3:
                    ba:83:36:fe:5f:dd:d6:88:f4:fa:50:b1:15:9c:77:
                    31:4d:12:11:d3:8d:c9:e5:b1:4d:c0:3f:9e:59:0d:
                    9b:85
                Exponent: 65537 (0x10001)
        X509v3 extensions:
            X509v3 Basic Constraints: 
                CA:FALSE
            X509v3 Subject Key Identifier: 
                29:0A:01:A3:59:88:CF:FC:BB:7C:E4:4A:12:93:C7:D9:72:C6:95:48
            X509v3 Authority Key Identifier: 
                keyid:33:D5:6B:A7:0F:14:84:26:12:59:AD:48:D0:8B:BF:DA:F2:4E:B5:6F
                DirName:/C=FR/ST=France/L=Palaiseau/O=Loboto Inc/CN=Loboto Inc Root CA/emailAddress=relations_clientele@loboto.com
                serial:8B:F4:BB:E6:FA:A1:A2:4E

            Netscape CA Revocation Url: 
                https://loboto/ca-crl.pem
    Signature Algorithm: sha1WithRSAEncryption
         91:ce:a8:2d:9c:26:17:43:47:42:7e:52:f8:db:75:82:6b:b7:
         16:f8:ab:1a:12:02:09:26:f7:39:59:bb:a0:75:67:99:91:4d:
         08:ef:6f:58:97:18:92:67:4a:90:e1:03:c8:b0:a4:57:c4:1b:
         88:47:2f:75:9b:c7:2b:93:ed:11:b1:2d:80:69:a6:58:f0:ad:
         59:f5:78:be:d0:0c:22:0f:ce:5d:ec:49:42:ef:7c:0b:b7:65:
         d8:48:9e:55:f3:50:3c:fb:a6:0e:08:97:91:67:2a:01:00:5a:
         85:84:51:6a:48:5c:df:fc:6d:05:d5:b2:67:07:0c:c0:97:ee:
         39:b7:07:96:2c:19:de:d8:02:d3:45:2e:62:70:69:0b:3a:4a:
         93:8c:25:c3:4d:02:98:11:66:64:22:c1:b0:db:9e:5f:37:21:
         d2:c7:b2:5a:d3:1c:d6:4c:1a:a1:9d:e9:9e:e9:fc:f1:dd:63:
         40:3d:6a:ca:06:4d:d9:02:02:55:6b:db:fc:46:2c:56:f1:cd:
         10:f5:06:bd:16:01:d9:bd:c4:9e:59:bd:65:5d:94:6d:2f:68:
         68:76:77:46:33:c2:85:06:81:a9:2b:21:8e:91:9a:39:9e:3a:
         73:65:8e:3d:bf:2a:d9:c7:36:a7:45:4c:3e:c9:04:e7:08:ec:
         65:db:50:d2
-----BEGIN CERTIFICATE-----
MIIEsTCCA5mgAwIBAgIBBDANBgkqhkiG9w0BAQUFADCBkzELMAkGA1UEBhMCRlIx
DzANBgNVBAgMBkZyYW5jZTESMBAGA1UEBwwJUGFsYWlzZWF1MRMwEQYDVQQKDApM
b2JvdG8gSW5jMRswGQYDVQQDDBJMb2JvdG8gSW5jIFJvb3QgQ0ExLTArBgkqhkiG
9w0BCQEWHnJlbGF0aW9uc19jbGllbnRlbGVAbG9ib3RvLmNvbTAeFw0xMzA2MjMx
MTU1MjBaFw0xNDA2MjMxMTU1MjBaMH0xCzAJBgNVBAYTAkZSMQ8wDQYDVQQIDAZG
cmFuY2UxEzARBgNVBAoMCkxvYm90byBJbmMxEjAQBgNVBAsMCURpcmVjdG9yeTEP
MA0GA1UEAwwGTG9ib3RvMSMwIQYJKoZIhvcNAQkBFhRkaXJlY3RvcnlAbG9ib3Rv
LmNvbTCCASIwDQYJKoZIhvcNAQEBBQADggEPADCCAQoCggEBAL7Ecn1vi3ly9VZs
+eNyTaiSREpGwwaDoFfpPcpA2fnpLBQOcm5facsg5aP+Ra+dbQ+C4hbq+LxuDZSp
VqnlZw/JJ3xUkoLQwI1/0n4XmcWT2oQV2a13CPloFrEv1HDSTk7/evsrh5gkIcbw
gw5CtSryCJWKRg9fLV8JXHTmngbmUvssuk0+MlJYhxqHY1zBqVClgidDyCzUiJy4
IzRKNn3gmLQK18De15sPJg9jDeIJGoEW9AIRcyQTv7RoYOtWOypKHFyj+vvRHypb
LxYtkD+gse1+q+EPCAGoq+6dNFvDuoM2/l/d1oj0+lCxFZx3MU0SEdONyeWxTcA/
nlkNm4UCAwEAAaOCASMwggEfMAkGA1UdEwQCMAAwHQYDVR0OBBYEFCkKAaNZiM/8
u3zkShKTx9lyxpVIMIHIBgNVHSMEgcAwgb2AFDPVa6cPFIQmElmtSNCLv9ryTrVv
oYGZpIGWMIGTMQswCQYDVQQGEwJGUjEPMA0GA1UECAwGRnJhbmNlMRIwEAYDVQQH
DAlQYWxhaXNlYXUxEzARBgNVBAoMCkxvYm90byBJbmMxGzAZBgNVBAMMEkxvYm90
byBJbmMgUm9vdCBDQTEtMCsGCSqGSIb3DQEJARYecmVsYXRpb25zX2NsaWVudGVs
ZUBsb2JvdG8uY29tggkAi/S75vqhok4wKAYJYIZIAYb4QgEEBBsWGWh0dHBzOi8v
bG9ib3RvL2NhLWNybC5wZW0wDQYJKoZIhvcNAQEFBQADggEBAJHOqC2cJhdDR0J+
UvjbdYJrtxb4qxoSAgkm9zlZu6B1Z5mRTQjvb1iXGJJnSpDhA8iwpFfEG4hHL3Wb
xyuT7RGxLYBppljwrVn1eL7QDCIPzl3sSULvfAu3ZdhInlXzUDz7pg4Il5FnKgEA
WoWEUWpIXN/8bQXVsmcHDMCX7jm3B5YsGd7YAtNFLmJwaQs6SpOMJcNNApgRZmQi
wbDbnl83IdLHslrTHNZMGqGd6Z7p/PHdY0A9asoGTdkCAlVr2/xGLFbxzRD1Br0W
Adm9xJ5ZvWVdlG0vaGh2d0YzwoUGgakrIY6RmjmeOnNljj2/KtnHNqdFTD7JBOcI
7GXbUNI=
-----END CERTIFICATE-----
