Certificate:
    Data:
        Version: 3 (0x2)
        Serial Number: 1 (0x1)
    Signature Algorithm: sha1WithRSAEncryption
        Issuer: C=FR, ST=France, L=Palaiseau, O=Loboto Inc, CN=Loboto Inc Root CA/emailAddress=relations_clientele@loboto.com
        Validity
            Not Before: Jun  7 14:13:27 2013 GMT
            Not After : Jun  7 14:13:27 2014 GMT
        Subject: C=FR, ST=France, O=Loboto Inc, OU=DSI, CN=Loboto/emailAddress=support@loboto.com
        Subject Public Key Info:
            Public Key Algorithm: rsaEncryption
                Public-Key: (2048 bit)
                Modulus:
                    00:df:95:22:d3:ab:af:d8:97:75:b5:58:ed:a7:90:
                    41:ab:f9:c8:36:f9:d9:23:34:b8:98:7f:62:ab:9d:
                    e5:22:85:cb:ef:a3:d6:85:e5:f3:3a:80:de:62:cf:
                    7a:a9:6c:80:e7:f4:37:eb:63:d8:09:d7:8e:65:68:
                    a3:2f:fb:f9:7f:be:b1:a5:53:ba:57:d7:32:85:3f:
                    9d:f2:04:7a:52:aa:89:d1:0e:ef:34:d7:e5:b8:dd:
                    e1:e6:f1:1d:e5:d3:c3:4b:0b:85:20:7c:61:8c:1f:
                    74:61:a6:c9:a2:ba:21:6e:01:8c:5d:e8:1e:ac:81:
                    fc:d1:6e:c8:3e:d1:1c:5b:18:7e:b3:f9:d4:50:33:
                    9f:f4:21:87:42:ea:70:e5:69:8c:32:22:42:e2:20:
                    13:1a:28:27:bd:5c:71:b8:52:48:fe:53:b9:25:60:
                    ca:ae:89:e0:71:2f:54:2e:35:93:05:21:a5:82:0b:
                    84:fb:29:c4:f2:ae:d4:ce:72:bf:cf:b3:71:af:95:
                    68:57:ea:ab:ac:9f:b4:49:a5:9a:45:5b:d2:af:5a:
                    a6:9c:ed:05:b9:f3:77:5d:83:53:b3:4f:f8:43:7b:
                    51:b1:0c:2a:b1:83:89:89:94:0c:59:b7:03:8d:7c:
                    2e:d5:53:2c:89:03:da:fb:07:87:72:27:3e:91:ab:
                    a0:1b
                Exponent: 65537 (0x10001)
        X509v3 extensions:
            X509v3 Basic Constraints: 
                CA:FALSE
            X509v3 Subject Key Identifier: 
                2B:DF:47:95:63:5B:65:25:3B:64:8B:B4:A8:C8:01:F5:A1:84:D7:E1
            X509v3 Authority Key Identifier: 
                keyid:33:D5:6B:A7:0F:14:84:26:12:59:AD:48:D0:8B:BF:DA:F2:4E:B5:6F
                DirName:/C=FR/ST=France/L=Palaiseau/O=Loboto Inc/CN=Loboto Inc Root CA/emailAddress=relations_clientele@loboto.com
                serial:8B:F4:BB:E6:FA:A1:A2:4E

            Netscape CA Revocation Url: 
                https://loboto/ca-crl.pem
    Signature Algorithm: sha1WithRSAEncryption
         25:27:f2:08:e5:b4:7f:bf:03:6e:94:cd:59:45:f8:ec:24:27:
         6c:ad:d1:2f:03:1b:61:af:b8:48:da:09:40:5d:dd:b4:9c:a2:
         42:cd:c4:78:05:e7:80:9d:a6:7f:39:b4:7e:03:79:5d:f5:50:
         0e:e1:ee:dd:2f:c3:5d:fb:9f:e7:2c:30:ae:1f:57:19:d6:e8:
         02:24:db:f6:30:9a:92:c2:54:1e:2d:da:c4:c8:79:2e:5d:a3:
         87:51:02:0e:25:95:ed:01:1b:89:0d:23:5e:05:84:71:41:40:
         49:85:b1:72:33:8b:c5:31:e1:f1:4e:bb:6e:9b:cd:25:51:23:
         8e:a9:54:31:91:d8:9c:09:92:ed:b8:ce:ee:54:97:58:3f:77:
         03:a9:51:a4:a0:1b:06:1b:a7:66:e2:1c:15:ba:c5:ce:7a:fc:
         06:de:14:f0:6f:a2:26:fd:b4:e3:ac:8d:90:eb:28:37:ca:56:
         3d:dc:fc:da:ea:74:ec:b9:5f:ab:2b:1e:9f:5f:14:f9:bf:d9:
         86:c1:af:19:c2:6e:d9:78:51:72:dd:d7:6e:a1:e4:e8:89:3e:
         76:77:8b:e8:a7:ba:30:bc:8a:c4:4f:50:3f:de:22:28:03:4c:
         8e:57:f4:57:63:d8:25:b0:35:cd:f4:1e:d6:ce:4a:a3:2b:4f:
         7d:af:d1:b1
-----BEGIN CERTIFICATE-----
MIIEqTCCA5GgAwIBAgIBATANBgkqhkiG9w0BAQUFADCBkzELMAkGA1UEBhMCRlIx
DzANBgNVBAgMBkZyYW5jZTESMBAGA1UEBwwJUGFsYWlzZWF1MRMwEQYDVQQKDApM
b2JvdG8gSW5jMRswGQYDVQQDDBJMb2JvdG8gSW5jIFJvb3QgQ0ExLTArBgkqhkiG
9w0BCQEWHnJlbGF0aW9uc19jbGllbnRlbGVAbG9ib3RvLmNvbTAeFw0xMzA2MDcx
NDEzMjdaFw0xNDA2MDcxNDEzMjdaMHUxCzAJBgNVBAYTAkZSMQ8wDQYDVQQIDAZG
cmFuY2UxEzARBgNVBAoMCkxvYm90byBJbmMxDDAKBgNVBAsMA0RTSTEPMA0GA1UE
AwwGTG9ib3RvMSEwHwYJKoZIhvcNAQkBFhJzdXBwb3J0QGxvYm90by5jb20wggEi
MA0GCSqGSIb3DQEBAQUAA4IBDwAwggEKAoIBAQDflSLTq6/Yl3W1WO2nkEGr+cg2
+dkjNLiYf2KrneUihcvvo9aF5fM6gN5iz3qpbIDn9DfrY9gJ145laKMv+/l/vrGl
U7pX1zKFP53yBHpSqonRDu801+W43eHm8R3l08NLC4UgfGGMH3RhpsmiuiFuAYxd
6B6sgfzRbsg+0RxbGH6z+dRQM5/0IYdC6nDlaYwyIkLiIBMaKCe9XHG4Ukj+U7kl
YMquieBxL1QuNZMFIaWCC4T7KcTyrtTOcr/Ps3GvlWhX6qusn7RJpZpFW9KvWqac
7QW583ddg1OzT/hDe1GxDCqxg4mJlAxZtwONfC7VUyyJA9r7B4dyJz6Rq6AbAgMB
AAGjggEjMIIBHzAJBgNVHRMEAjAAMB0GA1UdDgQWBBQr30eVY1tlJTtki7SoyAH1
oYTX4TCByAYDVR0jBIHAMIG9gBQz1WunDxSEJhJZrUjQi7/a8k61b6GBmaSBljCB
kzELMAkGA1UEBhMCRlIxDzANBgNVBAgMBkZyYW5jZTESMBAGA1UEBwwJUGFsYWlz
ZWF1MRMwEQYDVQQKDApMb2JvdG8gSW5jMRswGQYDVQQDDBJMb2JvdG8gSW5jIFJv
b3QgQ0ExLTArBgkqhkiG9w0BCQEWHnJlbGF0aW9uc19jbGllbnRlbGVAbG9ib3Rv
LmNvbYIJAIv0u+b6oaJOMCgGCWCGSAGG+EIBBAQbFhlodHRwczovL2xvYm90by9j
YS1jcmwucGVtMA0GCSqGSIb3DQEBBQUAA4IBAQAlJ/II5bR/vwNulM1ZRfjsJCds
rdEvAxthr7hI2glAXd20nKJCzcR4BeeAnaZ/ObR+A3ld9VAO4e7dL8Nd+5/nLDCu
H1cZ1ugCJNv2MJqSwlQeLdrEyHkuXaOHUQIOJZXtARuJDSNeBYRxQUBJhbFyM4vF
MeHxTrtum80lUSOOqVQxkdicCZLtuM7uVJdYP3cDqVGkoBsGG6dm4hwVusXOevwG
3hTwb6Im/bTjrI2Q6yg3ylY93Pza6nTsuV+rKx6fXxT5v9mGwa8Zwm7ZeFFy3ddu
oeToiT52d4vop7owvIrET1A/3iIoA0yOV/RXY9glsDXN9B7WzkqjK099r9Gx
-----END CERTIFICATE-----
